target datalayout = "e-m:e-p270:32:32-p271:32:32-p272:64:64-i64:64-i128:128-f80:128-n8:16:32:64-S128"
target triple = "x86_64-pc-linux-gnu"

@bio_err = external global ptr, align 8
@.str.58 = private unnamed_addr constant [24 x i8] c"Algorithm already set!\0A\00", align 1
@.str.59 = private unnamed_addr constant [31 x i8] c"Error initializing %s context\0A\00", align 1

; Function Attrs: nounwind uwtable
define dso_local i32 @init_gen_str(ptr noundef %0, ptr noundef %1, ptr noundef %2, i32 noundef %3, ptr noundef %4, ptr noundef %5) #0 {
  %7 = alloca i32, align 4
  %8 = alloca ptr, align 8
  %9 = alloca ptr, align 8
  %10 = alloca ptr, align 8
  %11 = alloca i32, align 4
  %12 = alloca ptr, align 8
  %13 = alloca ptr, align 8
  %14 = alloca ptr, align 8
  %15 = alloca i32, align 4
  %16 = alloca i32, align 4
  store ptr %0, ptr %8, align 8, !tbaa !39
  store ptr %1, ptr %9, align 8, !tbaa !21
  store ptr %2, ptr %10, align 8, !tbaa !15
  store i32 %3, ptr %11, align 4, !tbaa !4
  store ptr %4, ptr %12, align 8, !tbaa !25
  store ptr %5, ptr %13, align 8, !tbaa !21
  call void @llvm.lifetime.start.p0(i64 8, ptr %14) #6
  store ptr null, ptr %14, align 8, !tbaa !19
  call void @llvm.lifetime.start.p0(i64 4, ptr %15) #6
  %17 = load ptr, ptr %8, align 8, !tbaa !39
  %18 = load ptr, ptr %17, align 8, !tbaa !19
  %19 = icmp ne ptr %18, null
  br i1 %19, label %20, label %23

20:                                               ; preds = %6
  %21 = load ptr, ptr @bio_err, align 8, !tbaa !13
  %22 = call i32 @BIO_puts(ptr noundef %21, ptr noundef @.str.58)
  store i32 0, ptr %7, align 4
  store i32 1, ptr %16, align 4
  br label %67

23:                                               ; preds = %6
  %24 = load ptr, ptr %12, align 8, !tbaa !25
  %25 = load ptr, ptr %9, align 8, !tbaa !21
  %26 = load ptr, ptr %10, align 8, !tbaa !15
  %27 = call i32 @get_legacy_pkey_id(ptr noundef %24, ptr noundef %25, ptr noundef %26)
  store i32 %27, ptr %15, align 4, !tbaa !4
  %28 = load i32, ptr %15, align 4, !tbaa !4
  %29 = icmp ne i32 %28, 0
  br i1 %29, label %30, label %34

30:                                               ; preds = %23
  %31 = load i32, ptr %15, align 4, !tbaa !4
  %32 = load ptr, ptr %10, align 8, !tbaa !15
  %33 = call ptr @EVP_PKEY_CTX_new_id(i32 noundef %31, ptr noundef %32)
  store ptr %33, ptr %14, align 8, !tbaa !19
  br label %39

34:                                               ; preds = %23
  %35 = load ptr, ptr %12, align 8, !tbaa !25
  %36 = load ptr, ptr %9, align 8, !tbaa !21
  %37 = load ptr, ptr %13, align 8, !tbaa !21
  %38 = call ptr @EVP_PKEY_CTX_new_from_name(ptr noundef %35, ptr noundef %36, ptr noundef %37)
  store ptr %38, ptr %14, align 8, !tbaa !19
  br label %39

39:                                               ; preds = %34, %30
  %40 = load ptr, ptr %14, align 8, !tbaa !19
  %41 = icmp eq ptr %40, null
  br i1 %41, label %42, label %43

42:                                               ; preds = %39
  br label %61

43:                                               ; preds = %39
  %44 = load i32, ptr %11, align 4, !tbaa !4
  %45 = icmp ne i32 %44, 0
  br i1 %45, label %46, label %52

46:                                               ; preds = %43
  %47 = load ptr, ptr %14, align 8, !tbaa !19
  %48 = call i32 @EVP_PKEY_paramgen_init(ptr noundef %47)
  %49 = icmp sle i32 %48, 0
  br i1 %49, label %50, label %51

50:                                               ; preds = %46
  br label %61

51:                                               ; preds = %46
  br label %58

52:                                               ; preds = %43
  %53 = load ptr, ptr %14, align 8, !tbaa !19
  %54 = call i32 @EVP_PKEY_keygen_init(ptr noundef %53)
  %55 = icmp sle i32 %54, 0
  br i1 %55, label %56, label %57

56:                                               ; preds = %52
  br label %61

57:                                               ; preds = %52
  br label %58

58:                                               ; preds = %57, %51
  %59 = load ptr, ptr %14, align 8, !tbaa !19
  %60 = load ptr, ptr %8, align 8, !tbaa !39
  store ptr %59, ptr %60, align 8, !tbaa !19
  store i32 1, ptr %7, align 4
  store i32 1, ptr %16, align 4
  br label %67

61:                                               ; preds = %56, %50, %42
  %62 = load ptr, ptr @bio_err, align 8, !tbaa !13
  %63 = load ptr, ptr %9, align 8, !tbaa !21
  %64 = call i32 (ptr, ptr, ...) @BIO_printf(ptr noundef %62, ptr noundef @.str.59, ptr noundef %63)
  %65 = load ptr, ptr @bio_err, align 8, !tbaa !13
  call void @ERR_print_errors(ptr noundef %65)
  %66 = load ptr, ptr %14, align 8, !tbaa !19
  call void @EVP_PKEY_CTX_free(ptr noundef %66)
  store i32 0, ptr %7, align 4
  store i32 1, ptr %16, align 4
  br label %67

67:                                               ; preds = %61, %58, %20
  call void @llvm.lifetime.end.p0(i64 4, ptr %15) #6
  call void @llvm.lifetime.end.p0(i64 8, ptr %14) #6
  %68 = load i32, ptr %7, align 4
  ret i32 %68
}