; Function Attrs: nounwind uwtable
define dso_local range(i32 0, 2) i32 @init_gen_str(ptr noundef captures(none) %0, ptr noundef %1, ptr noundef %2, i32 noundef %3, ptr noundef %4, ptr noundef %5) local_unnamed_addr #0 {
  %7 = load ptr, ptr %0, align 8, !tbaa !4
  %.not = icmp eq ptr %7, null
  br i1 %.not, label %11, label %8

8:                                                ; preds = %6
  %9 = load ptr, ptr @bio_err, align 8, !tbaa !17
  %10 = tail call i32 @BIO_puts(ptr noundef %9, ptr noundef nonnull @.str.58) #5
  br label %31

11:                                               ; preds = %6
  %12 = tail call i32 @get_legacy_pkey_id(ptr noundef %4, ptr noundef %1, ptr noundef %2) #5
  %.not20 = icmp eq i32 %12, 0
  br i1 %.not20, label %15, label %13

13:                                               ; preds = %11
  %14 = tail call ptr @EVP_PKEY_CTX_new_id(i32 noundef %12, ptr noundef %2) #5
  br label %17

15:                                               ; preds = %11
  %16 = tail call ptr @EVP_PKEY_CTX_new_from_name(ptr noundef %4, ptr noundef %1, ptr noundef %5) #5
  br label %17

17:                                               ; preds = %15, %13
  %.018 = phi ptr [ %14, %13 ], [ %16, %15 ]
  %18 = icmp eq ptr %.018, null
  br i1 %18, label %27, label %19

19:                                               ; preds = %17
  %.not21 = icmp eq i32 %3, 0
  br i1 %.not21, label %23, label %20

20:                                               ; preds = %19
  %21 = tail call i32 @EVP_PKEY_paramgen_init(ptr noundef nonnull %.018) #5
  %22 = icmp slt i32 %21, 1
  br i1 %22, label %27, label %26

23:                                               ; preds = %19
  %24 = tail call i32 @EVP_PKEY_keygen_init(ptr noundef nonnull %.018) #5
  %25 = icmp slt i32 %24, 1
  br i1 %25, label %27, label %26

26:                                               ; preds = %23, %20
  store ptr %.018, ptr %0, align 8, !tbaa !4
  br label %31

27:                                               ; preds = %23, %20, %17
  %28 = load ptr, ptr @bio_err, align 8, !tbaa !17
  %29 = tail call i32 (ptr, ptr, ...) @BIO_printf(ptr noundef %28, ptr noundef nonnull @.str.59, ptr noundef %1) #5
  %30 = load ptr, ptr @bio_err, align 8, !tbaa !17
  tail call void @ERR_print_errors(ptr noundef %30) #5
  tail call void @EVP_PKEY_CTX_free(ptr noundef %.018) #5
  br label %31

31:                                               ; preds = %27, %26, %8
  %.0 = phi i32 [ 0, %8 ], [ 0, %27 ], [ 1, %26 ]
  ret i32 %.0
}